; Function Attrs: mustprogress nofree norecurse nosync nounwind willreturn memory(argmem: readwrite) uwtable
define hidden void @_ZN2cv7details10Chessboard5Board9PointIterC2ERKS3_(ptr noundef nonnull writeonly align 8 captures(none) dereferenceable(16) initializes((0, 4), (8, 16)) %0, ptr noundef nonnull readonly align 8 captures(none) dereferenceable(16) %1) unnamed_addr #19 align 2 {
  %3 = load i32, ptr %1, align 8, !tbaa !189
  store i32 %3, ptr %0, align 8, !tbaa !189
  %4 = getelementptr inbounds nuw i8, ptr %1, i64 8
  %5 = load ptr, ptr %4, align 8, !tbaa !192
  %6 = getelementptr inbounds nuw i8, ptr %0, i64 8
  store ptr %5, ptr %6, align 8, !tbaa !192
  ret void
}